target datalayout = "e-m:e-p270:32:32-p271:32:32-p272:64:64-i64:64-i128:128-f80:128-n8:16:32:64-S128"
target triple = "x86_64-pc-linux-gnu"

%"class.vcg::Matrix44" = type { %"struct.std::array" }
%"struct.std::array" = type { [16 x float] }
%class.QString = type { ptr }
%class.EditReferencingPlugin = type { %class.QObject, %class.EditTool, %class.QPoint, %class.QFont, ptr, ptr, i32, %"class.std::vector.16", %"class.vcg::Matrix44", %"class.std::vector.21", %"class.std::vector.25", %"class.std::vector.30", %"class.std::vector.30", %"class.std::vector.35", %"class.std::vector.21", %"class.std::vector.25", %"class.std::vector.30", %"class.std::vector.30", %"class.std::vector.35", %"class.std::vector.35", %"class.std::vector.35", %"class.std::vector.35", double, %"class.vcg::Matrix44.40", i32, i32, i8, i8, %class.QString, %class.QString, %class.QString, %class.QString, %class.QString }
%class.QObject = type { ptr, %class.QScopedPointer }
%class.QScopedPointer = type { ptr }
%class.EditTool = type { %class.MeshLabPluginLogger }
%class.MeshLabPluginLogger = type { ptr, ptr }
%class.QPoint = type { i32, i32 }
%class.QFont = type <{ %class.QExplicitlySharedDataPointer, i32, [4 x i8] }>
%class.QExplicitlySharedDataPointer = type { ptr }
%"class.std::vector.16" = type { %"struct.std::_Vector_base.17" }
%"struct.std::_Vector_base.17" = type { %"struct.std::_Vector_base<vcg::Matrix44<float>, std::allocator<vcg::Matrix44<float>>>::_Vector_impl" }
%"struct.std::_Vector_base<vcg::Matrix44<float>, std::allocator<vcg::Matrix44<float>>>::_Vector_impl" = type { %"struct.std::_Vector_base<vcg::Matrix44<float>, std::allocator<vcg::Matrix44<float>>>::_Vector_impl_data" }
%"struct.std::_Vector_base<vcg::Matrix44<float>, std::allocator<vcg::Matrix44<float>>>::_Vector_impl_data" = type { ptr, ptr, ptr }
%"class.std::vector.21" = type { %"struct.std::_Bvector_base" }
%"struct.std::_Bvector_base" = type { %"struct.std::_Bvector_base<std::allocator<bool>>::_Bvector_impl" }
%"struct.std::_Bvector_base<std::allocator<bool>>::_Bvector_impl" = type { %"struct.std::_Bvector_base<std::allocator<bool>>::_Bvector_impl_data" }
%"struct.std::_Bvector_base<std::allocator<bool>>::_Bvector_impl_data" = type { %"struct.std::_Bit_iterator", %"struct.std::_Bit_iterator", ptr }
%"struct.std::_Bit_iterator" = type { %"struct.std::_Bit_iterator_base.base", [4 x i8] }
%"struct.std::_Bit_iterator_base.base" = type <{ ptr, i32 }>
%"class.std::vector.25" = type { %"struct.std::_Vector_base.26" }
%"struct.std::_Vector_base.26" = type { %"struct.std::_Vector_base<QString, std::allocator<QString>>::_Vector_impl" }
%"struct.std::_Vector_base<QString, std::allocator<QString>>::_Vector_impl" = type { %"struct.std::_Vector_base<QString, std::allocator<QString>>::_Vector_impl_data" }
%"struct.std::_Vector_base<QString, std::allocator<QString>>::_Vector_impl_data" = type { ptr, ptr, ptr }
%"class.std::vector.30" = type { %"struct.std::_Vector_base.31" }
%"struct.std::_Vector_base.31" = type { %"struct.std::_Vector_base<vcg::Point3<double>, std::allocator<vcg::Point3<double>>>::_Vector_impl" }
%"struct.std::_Vector_base<vcg::Point3<double>, std::allocator<vcg::Point3<double>>>::_Vector_impl" = type { %"struct.std::_Vector_base<vcg::Point3<double>, std::allocator<vcg::Point3<double>>>::_Vector_impl_data" }
%"struct.std::_Vector_base<vcg::Point3<double>, std::allocator<vcg::Point3<double>>>::_Vector_impl_data" = type { ptr, ptr, ptr }
%"class.std::vector.35" = type { %"struct.std::_Vector_base.36" }
%"struct.std::_Vector_base.36" = type { %"struct.std::_Vector_base<double, std::allocator<double>>::_Vector_impl" }
%"struct.std::_Vector_base<double, std::allocator<double>>::_Vector_impl" = type { %"struct.std::_Vector_base<double, std::allocator<double>>::_Vector_impl_data" }
%"struct.std::_Vector_base<double, std::allocator<double>>::_Vector_impl_data" = type { ptr, ptr, ptr }
%"class.vcg::Matrix44.40" = type { %"struct.std::array.41" }
%"struct.std::array.41" = type { [16 x double] }
%class.edit_referencingDialog = type { %class.QDockWidget, ptr, ptr, ptr }
%class.QDockWidget = type { %class.QWidget }
%class.QWidget = type { %class.QObject, %class.QPaintDevice, ptr }
%class.QPaintDevice = type { ptr, i16, ptr }
%class.Ui_edit_referencingDialog = type { ptr, ptr, ptr, ptr, ptr, ptr, ptr, ptr, ptr, ptr, ptr, ptr, ptr, ptr, ptr, ptr, ptr, ptr, ptr, ptr, ptr, ptr, ptr, ptr, ptr, ptr, ptr, ptr, ptr, ptr, ptr, ptr, ptr, ptr, ptr, ptr, ptr, ptr, ptr, ptr, ptr, ptr, ptr, ptr, ptr }

@.str.47 = private unnamed_addr constant [1 x i8] zeroinitializer, align 1
@.str.51 = private unnamed_addr constant [11 x i8] c"currentMOV\00", align 1
@.str.59 = private unnamed_addr constant [18 x i8] c"No point selected\00", align 1
@.str.60 = private unnamed_addr constant [36 x i8] c"Double-click on model to pick point\00", align 1

; Function Attrs: mustprogress nounwind uwtable
define linkonce_odr void @_ZSt4swapIP15QTypedArrayDataItEENSt9enable_ifIXsr6__and_ISt6__not_ISt15__is_tuple_likeIT_EESt21is_move_constructibleIS6_ESt18is_move_assignableIS6_EEE5valueEvE4typeERS6_SF_(ptr noundef nonnull align 8 dereferenceable(8) %0, ptr noundef nonnull align 8 dereferenceable(8) %1) #4 comdat {
  %3 = alloca ptr, align 8
  %4 = alloca ptr, align 8
  %5 = alloca ptr, align 8
  store ptr %0, ptr %3, align 8
  store ptr %1, ptr %4, align 8
  %6 = load ptr, ptr %3, align 8
  %7 = load ptr, ptr %6, align 8
  store ptr %7, ptr %5, align 8
  %8 = load ptr, ptr %4, align 8
  %9 = load ptr, ptr %8, align 8
  %10 = load ptr, ptr %3, align 8
  store ptr %9, ptr %10, align 8
  %11 = load ptr, ptr %5, align 8
  %12 = load ptr, ptr %4, align 8
  store ptr %11, ptr %12, align 8
  ret void
}

; Function Attrs: mustprogress nounwind uwtable
define linkonce_odr void @_Z5qSwapIP15QTypedArrayDataItEEvRT_S4_(ptr noundef nonnull align 8 dereferenceable(8) %0, ptr noundef nonnull align 8 dereferenceable(8) %1) #4 comdat {
  %3 = alloca ptr, align 8
  %4 = alloca ptr, align 8
  store ptr %0, ptr %3, align 8
  store ptr %1, ptr %4, align 8
  %5 = load ptr, ptr %3, align 8
  %6 = load ptr, ptr %4, align 8
  call void @_ZSt4swapIP15QTypedArrayDataItEENSt9enable_ifIXsr6__and_ISt6__not_ISt15__is_tuple_likeIT_EESt21is_move_constructibleIS6_ESt18is_move_assignableIS6_EEE5valueEvE4typeERS6_SF_(ptr noundef nonnull align 8 dereferenceable(8) %5, ptr noundef nonnull align 8 dereferenceable(8) %6) #3
  ret void
}

; Function Attrs: mustprogress nounwind uwtable
define linkonce_odr noundef nonnull align 8 dereferenceable(8) ptr @_ZN7QStringaSEOS_(ptr noundef nonnull align 8 dereferenceable(8) %0, ptr noundef nonnull align 8 dereferenceable(8) %1) #4 comdat align 2 {
  %3 = alloca ptr, align 8
  %4 = alloca ptr, align 8
  store ptr %0, ptr %3, align 8
  store ptr %1, ptr %4, align 8
  %5 = load ptr, ptr %3, align 8
  %6 = getelementptr inbounds %class.QString, ptr %5, i32 0, i32 0
  %7 = load ptr, ptr %4, align 8
  %8 = getelementptr inbounds %class.QString, ptr %7, i32 0, i32 0
  call void @_Z5qSwapIP15QTypedArrayDataItEEvRT_S4_(ptr noundef nonnull align 8 dereferenceable(8) %6, ptr noundef nonnull align 8 dereferenceable(8) %8) #3
  ret ptr %5
}

; Function Attrs: mustprogress uwtable
define linkonce_odr void @_ZN7QString8fromUtf8EPKci(ptr dead_on_unwind noalias writable sret(%class.QString) align 8 %0, ptr noundef %1, i32 noundef %2) #5 comdat align 2 {
  %4 = alloca ptr, align 8
  %5 = alloca ptr, align 8
  %6 = alloca i32, align 4
  store ptr %0, ptr %4, align 8
  store ptr %1, ptr %5, align 8
  store i32 %2, ptr %6, align 4
  %7 = load ptr, ptr %5, align 8
  %8 = load ptr, ptr %5, align 8
  %9 = icmp ne ptr %8, null
  br i1 %9, label %10, label %17

10:                                               ; preds = %3
  %11 = load i32, ptr %6, align 4
  %12 = icmp eq i32 %11, -1
  br i1 %12, label %13, label %17

13:                                               ; preds = %10
  %14 = load ptr, ptr %5, align 8
  %15 = call i64 @strlen(ptr noundef %14) #24
  %16 = trunc i64 %15 to i32
  br label %19

17:                                               ; preds = %10, %3
  %18 = load i32, ptr %6, align 4
  br label %19

19:                                               ; preds = %17, %13
  %20 = phi i32 [ %16, %13 ], [ %18, %17 ]
  call void @_ZN7QString15fromUtf8_helperEPKci(ptr dead_on_unwind writable sret(%class.QString) align 8 %0, ptr noundef %7, i32 noundef %20)
  ret void
}

; Function Attrs: mustprogress uwtable
define linkonce_odr void @_ZN7QStringC2EPKc(ptr noundef nonnull align 8 dereferenceable(8) %0, ptr noundef %1) unnamed_addr #5 comdat align 2 {
  %3 = alloca ptr, align 8
  %4 = alloca ptr, align 8
  store ptr %0, ptr %3, align 8
  store ptr %1, ptr %4, align 8
  %5 = load ptr, ptr %3, align 8
  %6 = getelementptr inbounds %class.QString, ptr %5, i32 0, i32 0
  %7 = load ptr, ptr %4, align 8
  %8 = load ptr, ptr %4, align 8
  %9 = icmp ne ptr %8, null
  br i1 %9, label %10, label %14

10:                                               ; preds = %2
  %11 = load ptr, ptr %4, align 8
  %12 = call i64 @strlen(ptr noundef %11) #24
  %13 = trunc i64 %12 to i32
  br label %15

14:                                               ; preds = %2
  br label %15

15:                                               ; preds = %14, %10
  %16 = phi i32 [ %13, %10 ], [ -1, %14 ]
  %17 = call noundef ptr @_ZN7QString16fromAscii_helperEPKci(ptr noundef %7, i32 noundef %16)
  store ptr %17, ptr %6, align 8
  ret void
}

; Function Attrs: mustprogress uwtable
define linkonce_odr noundef nonnull align 8 dereferenceable(8) ptr @_ZN7QStringaSEPKc(ptr noundef nonnull align 8 dereferenceable(8) %0, ptr noundef %1) #5 comdat align 2 {
  %3 = alloca ptr, align 8
  %4 = alloca ptr, align 8
  %5 = alloca %class.QString, align 8
  store ptr %0, ptr %3, align 8
  store ptr %1, ptr %4, align 8
  %6 = load ptr, ptr %3, align 8
  %7 = load ptr, ptr %4, align 8
  call void @_ZN7QString8fromUtf8EPKci(ptr dead_on_unwind writable sret(%class.QString) align 8 %5, ptr noundef %7, i32 noundef -1)
  %8 = call noundef nonnull align 8 dereferenceable(8) ptr @_ZN7QStringaSEOS_(ptr noundef nonnull align 8 dereferenceable(8) %6, ptr noundef nonnull align 8 dereferenceable(8) %5) #3
  call void @_ZN7QStringD2Ev(ptr noundef nonnull align 8 dereferenceable(8) %5) #3
  ret ptr %8
}

; Function Attrs: mustprogress uwtable
define void @_ZN21EditReferencingPlugin16pickCurrentPointEv(ptr noundef nonnull align 8 dereferenceable(704) %0) #5 align 2 personality ptr @__gxx_personality_v0 {
  %2 = alloca ptr, align 8
  %3 = alloca i32, align 4
  %4 = alloca %class.QString, align 8
  %5 = alloca ptr, align 8
  %6 = alloca i32, align 4
  store ptr %0, ptr %2, align 8
  %7 = load ptr, ptr %2, align 8
  %8 = getelementptr inbounds %class.EditReferencingPlugin, ptr %7, i32 0, i32 31
  %9 = call noundef nonnull align 8 dereferenceable(8) ptr @_ZN7QStringaSEPKc(ptr noundef nonnull align 8 dereferenceable(8) %8, ptr noundef @.str.47)
  %10 = getelementptr inbounds %class.EditReferencingPlugin, ptr %7, i32 0, i32 4
  %11 = load ptr, ptr %10, align 8
  %12 = getelementptr inbounds %class.edit_referencingDialog, ptr %11, i32 0, i32 1
  %13 = load ptr, ptr %12, align 8
  %14 = getelementptr inbounds %class.Ui_edit_referencingDialog, ptr %13, i32 0, i32 8
  %15 = load ptr, ptr %14, align 8
  %16 = call noundef i32 @_ZNK12QTableWidget10currentRowEv(ptr noundef nonnull align 8 dereferenceable(48) %15)
  store i32 %16, ptr %3, align 4
  %17 = load i32, ptr %3, align 4
  %18 = icmp eq i32 %17, -1
  br i1 %18, label %19, label %24

19:                                               ; preds = %1
  %20 = getelementptr inbounds %class.EditReferencingPlugin, ptr %7, i32 0, i32 31
  %21 = call noundef nonnull align 8 dereferenceable(8) ptr @_ZN7QStringaSEPKc(ptr noundef nonnull align 8 dereferenceable(8) %20, ptr noundef @.str.59)
  %22 = getelementptr inbounds %class.EditReferencingPlugin, ptr %7, i32 0, i32 5
  %23 = load ptr, ptr %22, align 8
  call void @_ZN7QWidget6updateEv(ptr noundef nonnull align 8 dereferenceable(48) %23)
  br label %31

24:                                               ; preds = %1
  %25 = getelementptr inbounds %class.EditReferencingPlugin, ptr %7, i32 0, i32 25
  store i32 0, ptr %25, align 4
  call void @_ZN7QStringC2EPKc(ptr noundef nonnull align 8 dereferenceable(8) %4, ptr noundef @.str.51)
  invoke void @_ZN21EditReferencingPlugin13askSurfacePosE7QString(ptr noundef nonnull align 8 dereferenceable(704) %7, ptr noundef %4)
          to label %26 unwind label %32

26:                                               ; preds = %24
  call void @_ZN7QStringD2Ev(ptr noundef nonnull align 8 dereferenceable(8) %4) #3
  %27 = getelementptr inbounds %class.EditReferencingPlugin, ptr %7, i32 0, i32 29
  %28 = call noundef nonnull align 8 dereferenceable(8) ptr @_ZN7QStringaSEPKc(ptr noundef nonnull align 8 dereferenceable(8) %27, ptr noundef @.str.60)
  %29 = getelementptr inbounds %class.EditReferencingPlugin, ptr %7, i32 0, i32 5
  %30 = load ptr, ptr %29, align 8
  call void @_ZN7QWidget6updateEv(ptr noundef nonnull align 8 dereferenceable(48) %30)
  br label %31

31:                                               ; preds = %26, %19
  ret void

32:                                               ; preds = %24
  %33 = landingpad { ptr, i32 }
          cleanup
  %34 = extractvalue { ptr, i32 } %33, 0
  store ptr %34, ptr %5, align 8
  %35 = extractvalue { ptr, i32 } %33, 1
  store i32 %35, ptr %6, align 4
  call void @_ZN7QStringD2Ev(ptr noundef nonnull align 8 dereferenceable(8) %4) #3
  br label %36

36:                                               ; preds = %32
  %37 = load ptr, ptr %5, align 8
  %38 = load i32, ptr %6, align 4
  %39 = insertvalue { ptr, i32 } poison, ptr %37, 0
  %40 = insertvalue { ptr, i32 } %39, i32 %38, 1
  resume { ptr, i32 } %40
}